target datalayout = "e-m:e-p270:32:32-p271:32:32-p272:64:64-i64:64-i128:128-f80:128-n8:16:32:64-S128"
target triple = "x86_64-pc-linux-gnu"

%struct.expert_field = type { i32, i32 }
%struct._packet_info = type { ptr, ptr, i32, i32, %struct.nstime_t, %struct.nstime_t, %struct.nstime_t, i32, ptr, ptr, ptr, ptr, %struct._address, %struct._address, %struct._address, %struct._address, %struct._address, %struct._address, i32, ptr, i32, %struct.anon, i32, i32, i32, i32, ptr, i32, ptr, ptr, i16, i16, i32, i32, i16, i32, i32, ptr, ptr, ptr, i8, i8, i16, i16, i16, i32, i16, i16, ptr, ptr, ptr, ptr, ptr, i32 }
%struct.nstime_t = type { i64, i32 }
%struct._address = type { i32, i32, ptr, ptr }
%struct.anon = type { i8, [3 x i8] }

@hf_tcp_option_kind = internal global i32 0, align 4
@hf_tcp_option_len = internal global i32 0, align 4
@hf_tcp_option_ao_keyid = internal global i32 0, align 4
@hf_tcp_option_ao_rnextkeyid = internal global i32 0, align 4
@hf_tcp_option_ao_mac = internal global i32 0, align 4
@ett_tcp_opt_ao = internal global i32 0, align 4
@ei_tcp_opt_len_invalid = internal global %struct.expert_field zeroinitializer, align 4
@.str.680 = private unnamed_addr constant [7 x i8] c"TCP AO\00", align 1
@proto_tcp_option_ao = internal global i32 0, align 4
@.str.1002 = private unnamed_addr constant [34 x i8] c"option length should be >= than 4\00", align 1

; Function Attrs: nounwind uwtable
define internal i32 @dissect_tcpopt_ao(ptr noundef %0, ptr noundef %1, ptr noundef %2, ptr noundef %3) #0 {
  %5 = alloca i32, align 4
  %6 = alloca ptr, align 8
  %7 = alloca ptr, align 8
  %8 = alloca ptr, align 8
  %9 = alloca ptr, align 8
  %10 = alloca ptr, align 8
  %11 = alloca ptr, align 8
  %12 = alloca ptr, align 8
  %13 = alloca i32, align 4
  %14 = alloca i32, align 4
  store ptr %0, ptr %6, align 8
  store ptr %1, ptr %7, align 8
  store ptr %2, ptr %8, align 8
  store ptr %3, ptr %9, align 8
  store i32 0, ptr %13, align 4
  %15 = load ptr, ptr %6, align 8
  %16 = call i32 @tvb_reported_length(ptr noundef %15)
  store i32 %16, ptr %14, align 4
  %17 = load ptr, ptr %8, align 8
  %18 = load i32, ptr @proto_tcp_option_ao, align 4
  %19 = load ptr, ptr %6, align 8
  %20 = load i32, ptr %13, align 4
  %21 = call ptr @proto_tree_add_item(ptr noundef %17, i32 noundef %18, ptr noundef %19, i32 noundef %20, i32 noundef -1, i32 noundef 0)
  store ptr %21, ptr %11, align 8
  %22 = load ptr, ptr %11, align 8
  %23 = load i32, ptr @ett_tcp_opt_ao, align 4
  %24 = call ptr @proto_item_add_subtree(ptr noundef %22, i32 noundef %23)
  store ptr %24, ptr %10, align 8
  %25 = load ptr, ptr %7, align 8
  %26 = getelementptr inbounds %struct._packet_info, ptr %25, i32 0, i32 1
  %27 = load ptr, ptr %26, align 8
  %28 = inttoptr i64 -1 to ptr
  call void (ptr, i32, ptr, ...) @col_append_lstr(ptr noundef %27, i32 noundef 25, ptr noundef @.str.680, ptr noundef %28)
  %29 = load ptr, ptr %10, align 8
  %30 = load i32, ptr @hf_tcp_option_kind, align 4
  %31 = load ptr, ptr %6, align 8
  %32 = load i32, ptr %13, align 4
  %33 = call ptr @proto_tree_add_item(ptr noundef %29, i32 noundef %30, ptr noundef %31, i32 noundef %32, i32 noundef 1, i32 noundef 0)
  %34 = load ptr, ptr %10, align 8
  %35 = load i32, ptr @hf_tcp_option_len, align 4
  %36 = load ptr, ptr %6, align 8
  %37 = load i32, ptr %13, align 4
  %38 = add i32 %37, 1
  %39 = call ptr @proto_tree_add_item(ptr noundef %34, i32 noundef %35, ptr noundef %36, i32 noundef %38, i32 noundef 1, i32 noundef 0)
  store ptr %39, ptr %12, align 8
  %40 = load i32, ptr %14, align 4
  %41 = icmp slt i32 %40, 4
  br i1 %41, label %42, label %48

42:                                               ; preds = %4
  %43 = load ptr, ptr %7, align 8
  %44 = load ptr, ptr %12, align 8
  %45 = call ptr (ptr, ptr, ptr, ptr, ...) @expert_add_info_format(ptr noundef %43, ptr noundef %44, ptr noundef @ei_tcp_opt_len_invalid, ptr noundef @.str.1002)
  %46 = load ptr, ptr %6, align 8
  %47 = call i32 @tvb_captured_length(ptr noundef %46)
  store i32 %47, ptr %5, align 4
  br label %75

48:                                               ; preds = %4
  %49 = load ptr, ptr %10, align 8
  %50 = load i32, ptr @hf_tcp_option_ao_keyid, align 4
  %51 = load ptr, ptr %6, align 8
  %52 = load i32, ptr %13, align 4
  %53 = add i32 %52, 2
  %54 = call ptr @proto_tree_add_item(ptr noundef %49, i32 noundef %50, ptr noundef %51, i32 noundef %53, i32 noundef 1, i32 noundef 0)
  %55 = load ptr, ptr %10, align 8
  %56 = load i32, ptr @hf_tcp_option_ao_rnextkeyid, align 4
  %57 = load ptr, ptr %6, align 8
  %58 = load i32, ptr %13, align 4
  %59 = add i32 %58, 3
  %60 = call ptr @proto_tree_add_item(ptr noundef %55, i32 noundef %56, ptr noundef %57, i32 noundef %59, i32 noundef 1, i32 noundef 0)
  %61 = load i32, ptr %14, align 4
  %62 = icmp sgt i32 %61, 4
  br i1 %62, label %63, label %72

63:                                               ; preds = %48
  %64 = load ptr, ptr %10, align 8
  %65 = load i32, ptr @hf_tcp_option_ao_mac, align 4
  %66 = load ptr, ptr %6, align 8
  %67 = load i32, ptr %13, align 4
  %68 = add i32 %67, 4
  %69 = load i32, ptr %14, align 4
  %70 = sub i32 %69, 4
  %71 = call ptr @proto_tree_add_item(ptr noundef %64, i32 noundef %65, ptr noundef %66, i32 noundef %68, i32 noundef %70, i32 noundef 0)
  br label %72

72:                                               ; preds = %63, %48
  %73 = load ptr, ptr %6, align 8
  %74 = call i32 @tvb_captured_length(ptr noundef %73)
  store i32 %74, ptr %5, align 4
  br label %75

75:                                               ; preds = %72, %42
  %76 = load i32, ptr %5, align 4
  ret i32 %76
}