; Function Attrs: nounwind uwtable
define internal i32 @dissect_tcpopt_ao(ptr noundef %0, ptr noundef %1, ptr noundef %2, ptr readnone captures(none) %3) #0 {
  %5 = tail call i32 @tvb_reported_length(ptr noundef %0) #20
  %6 = load i32, ptr @proto_tcp_option_ao, align 4
  %7 = tail call ptr @proto_tree_add_item(ptr noundef %2, i32 noundef %6, ptr noundef %0, i32 noundef 0, i32 noundef -1, i32 noundef 0) #20
  %8 = load i32, ptr @ett_tcp_opt_ao, align 4
  %9 = tail call ptr @proto_item_add_subtree(ptr noundef %7, i32 noundef %8) #20
  %10 = getelementptr inbounds nuw i8, ptr %1, i64 8
  %11 = load ptr, ptr %10, align 8
  tail call void (ptr, i32, ptr, ...) @col_append_lstr(ptr noundef %11, i32 noundef 25, ptr noundef nonnull @.str.680, ptr noundef nonnull inttoptr (i64 -1 to ptr)) #20
  %12 = load i32, ptr @hf_tcp_option_kind, align 4
  %13 = tail call ptr @proto_tree_add_item(ptr noundef %9, i32 noundef %12, ptr noundef %0, i32 noundef 0, i32 noundef 1, i32 noundef 0) #20
  %14 = load i32, ptr @hf_tcp_option_len, align 4
  %15 = tail call ptr @proto_tree_add_item(ptr noundef %9, i32 noundef %14, ptr noundef %0, i32 noundef 1, i32 noundef 1, i32 noundef 0) #20
  %16 = icmp slt i32 %5, 4
  br i1 %16, label %17, label %19

17:                                               ; preds = %4
  %18 = tail call ptr (ptr, ptr, ptr, ptr, ...) @expert_add_info_format(ptr noundef nonnull %1, ptr noundef %15, ptr noundef nonnull @ei_tcp_opt_len_invalid, ptr noundef nonnull @.str.1002) #20
  br label %28

19:                                               ; preds = %4
  %20 = load i32, ptr @hf_tcp_option_ao_keyid, align 4
  %21 = tail call ptr @proto_tree_add_item(ptr noundef %9, i32 noundef %20, ptr noundef %0, i32 noundef 2, i32 noundef 1, i32 noundef 0) #20
  %22 = load i32, ptr @hf_tcp_option_ao_rnextkeyid, align 4
  %23 = tail call ptr @proto_tree_add_item(ptr noundef %9, i32 noundef %22, ptr noundef %0, i32 noundef 3, i32 noundef 1, i32 noundef 0) #20
  %.not = icmp eq i32 %5, 4
  br i1 %.not, label %28, label %24

24:                                               ; preds = %19
  %25 = load i32, ptr @hf_tcp_option_ao_mac, align 4
  %26 = add nsw i32 %5, -4
  %27 = tail call ptr @proto_tree_add_item(ptr noundef %9, i32 noundef %25, ptr noundef %0, i32 noundef 4, i32 noundef %26, i32 noundef 0) #20
  br label %28

28:                                               ; preds = %19, %24, %17
  %29 = tail call i32 @tvb_captured_length(ptr noundef %0) #20
  ret i32 %29
}